; Function Attrs: mustprogress nofree norecurse nosync nounwind willreturn memory(write, argmem: read, inaccessiblemem: none) uwtable
define internal range(i32 0, 2) i32 @_menu_button_pressed(ptr readnone captures(none) %0, ptr noundef readonly captures(none) %1, ptr readnone captures(none) %2) #6 {
  %4 = getelementptr inbounds nuw i8, ptr %1, i64 52
  %5 = load i32, ptr %4, align 4
  %6 = icmp eq i32 %5, 3
  br i1 %6, label %7, label %8

7:                                                ; preds = %3
  store i1 true, ptr @menu_right_pressed, align 1
  br label %8

8:                                                ; preds = %3, %7
  %.0 = phi i32 [ 1, %7 ], [ 0, %3 ]
  ret i32 %.0
}